target datalayout = "e-m:e-p270:32:32-p271:32:32-p272:64:64-i64:64-i128:128-f80:128-n8:16:32:64-S128"
target triple = "x86_64-unknown-linux-gnu"

%struct.redisServer = type { i32, i64, ptr, ptr, ptr, i32, i32, i32, i32, i32, ptr, ptr, ptr, ptr, ptr, ptr, i32, i32, i64, i32, i32, i32, i32, ptr, i32, i32, [41 x i8], i32, i64, i32, i32, i32, ptr, ptr, i32, i32, i64, ptr, ptr, ptr, ptr, [2 x i32], i32, i32, i32, i32, i32, [16 x ptr], i32, ptr, ptr, i32, [8 x %struct.connListener], i32, %struct.connListener, ptr, ptr, ptr, ptr, ptr, ptr, ptr, ptr, ptr, ptr, i32, ptr, i32, ptr, [3 x %struct.pause_event], [256 x i8], ptr, i64, i32, i32, i32, i32, i64, i32, i32, i32, i32, i32, i64, i64, i64, i64, i64, i64, i64, i64, i64, double, i64, i64, i64, i64, i64, i64, i64, i64, i64, i64, i64, i64, i64, i64, i64, i64, i64, i64, i64, i64, double, i64, i64, i64, i64, i64, ptr, i64, i64, i64, %struct.malloc_stats, i64, i64, i64, i64, i64, i64, i64, i64, i64, i64, i64, i64, double, [4 x i64], i64, i64, i64, i64, i64, i64, i64, i64, i64, i64, [7 x %struct.anon], i64, i64, i64, i64, i64, i64, [4 x %struct.durationStats], i32, i32, i32, i32, i32, i32, i32, i32, i32, i32, i64, i32, i32, i32, i32, i64, i64, i32, i32, i32, i32, i32, ptr, [3 x %struct.clientBufferLimitsConfig], i32, i32, ptr, i32, i32, i32, i32, ptr, ptr, i32, i32, i64, i64, i64, i64, i64, i32, i32, ptr, i32, i32, i64, i64, i64, i64, i64, i32, i32, i64, i32, i32, i32, i32, i32, i32, i32, i32, ptr, i32, i64, i64, i64, i64, ptr, i32, ptr, i32, i32, i32, i64, i64, i64, i64, i32, i32, i32, i32, i32, i32, ptr, i32, i32, ptr, i32, i32, i32, [2 x i32], i32, %struct.redisOpArray, i32, ptr, i32, ptr, i32, i32, i32, i32, i32, i32, i32, [41 x i8], [41 x i8], i64, i64, i64, i64, i32, i32, ptr, i64, i64, i64, i32, i32, i32, i32, i32, i32, i32, i64, ptr, ptr, ptr, ptr, i32, i32, ptr, ptr, i32, i32, i64, i64, i64, ptr, i32, ptr, i64, i32, i32, i32, i64, i32, i32, i32, i32, ptr, i32, i32, [41 x i8], i64, i32, ptr, i32, i32, i64, i64, i32, i32, i32, i32, i32, i64, [3 x i32], i32, i32, i32, [9 x i32], ptr, ptr, i32, i64, ptr, ptr, i32, i32, i32, i32, i64, i64, i64, i64, i64, i64, i64, i64, i64, i64, i32, i32, i64, i64, i32, i64, i64, i64, i64, i64, ptr, ptr, i32, ptr, i32, i32, i32, i64, i64, ptr, ptr, i32, i32, i32, i32, i32, ptr, ptr, ptr, i32, i32, i32, i32, i32, i32, i32, i64, i32, i64, i32, i32, i32, i32, i32, i32, i32, i64, ptr, ptr, i64, ptr, i32, %struct.aclInfo, i32, i64, i32, i32, i32, %struct.redisTLSContextConfig, ptr, ptr, ptr, ptr, ptr, i64, i32, ptr, i32, i32, i32, i64, i32, ptr }
%struct.connListener = type { [16 x i32], i32, ptr, i32, i32, ptr, ptr }
%struct.pause_event = type { i32, i64 }
%struct.malloc_stats = type { i64, i64, i64, i64, i64 }
%struct.anon = type { i64, i64, [16 x i64], i32 }
%struct.durationStats = type { i64, i64, i64 }
%struct.clientBufferLimitsConfig = type { i64, i64, i64 }
%struct.redisOpArray = type { ptr, i32, i32 }
%struct.aclInfo = type { i64, i64, i64, i64 }
%struct.redisTLSContextConfig = type { ptr, ptr, ptr, ptr, ptr, ptr, ptr, ptr, ptr, ptr, ptr, ptr, i32, i32, i32, i32 }
%struct.Dl_info = type { ptr, ptr, ptr, ptr }

@server = external global %struct.redisServer, align 8
@.str.280 = private unnamed_addr constant [2 x i8] c"\0A\00", align 1
@.str.284 = private unnamed_addr constant [25 x i8] c"Function at 0x%lx is %s\0A\00", align 1
@.str.285 = private unnamed_addr constant [198 x i8] c"\0A------ DUMPING CODE AROUND EIP ------\0ASymbol: %s (base: %p)\0AModule: %s (base %p)\0A$ xxd -r -p /tmp/dump.hex /tmp/dump.bin\0A$ objdump --adjust-vma=%p -D -b binary -m i386:x86-64 /tmp/dump.bin\0A------\0A\00", align 1
@.str.286 = private unnamed_addr constant [17 x i8] c"dump of function\00", align 1
@__const.serverLogHexDump.charset = private unnamed_addr constant [17 x i8] c"0123456789abcdef\00", align 16
@.str.290 = private unnamed_addr constant [27 x i8] c"%s (hexdump of %zu bytes):\00", align 1

; Function Attrs: nounwind uwtable
define dso_local void @dumpX86Calls(ptr noundef %addr, i64 noundef %len) #0 {
entry:
  %addr.addr = alloca ptr, align 8
  %len.addr = alloca i64, align 8
  %j = alloca i64, align 8
  %p = alloca ptr, align 8
  %info = alloca %struct.Dl_info, align 8
  %ht = alloca [256 x i64], align 16
  %target = alloca i64, align 8
  %tmp = alloca i32, align 4
  store ptr %addr, ptr %addr.addr, align 8
  store i64 %len, ptr %len.addr, align 8
  %0 = load ptr, ptr %addr.addr, align 8
  store ptr %0, ptr %p, align 8
  call void @llvm.memset.p0.i64(ptr align 16 %ht, i8 0, i64 2048, i1 false)
  %1 = load i64, ptr %len.addr, align 8
  %cmp = icmp ult i64 %1, 5
  br i1 %cmp, label %if.then, label %if.end

if.then:                                          ; preds = %entry
  br label %for.end

if.end:                                           ; preds = %entry
  store i64 0, ptr %j, align 8
  br label %for.cond

for.cond:                                         ; preds = %for.inc, %if.end
  %2 = load i64, ptr %j, align 8
  %3 = load i64, ptr %len.addr, align 8
  %sub = sub i64 %3, 4
  %cmp1 = icmp ult i64 %2, %sub
  br i1 %cmp1, label %for.body, label %for.end

for.body:                                         ; preds = %for.cond
  %4 = load ptr, ptr %p, align 8
  %5 = load i64, ptr %j, align 8
  %arrayidx = getelementptr inbounds i8, ptr %4, i64 %5
  %6 = load i8, ptr %arrayidx, align 1
  %conv = zext i8 %6 to i32
  %cmp2 = icmp ne i32 %conv, 232
  br i1 %cmp2, label %if.then4, label %if.end5

if.then4:                                         ; preds = %for.body
  br label %for.inc

if.end5:                                          ; preds = %for.body
  %7 = load ptr, ptr %addr.addr, align 8
  %8 = ptrtoint ptr %7 to i64
  %9 = load i64, ptr %j, align 8
  %add = add i64 %8, %9
  %add6 = add i64 %add, 5
  store i64 %add6, ptr %target, align 8
  %10 = load ptr, ptr %p, align 8
  %11 = load i64, ptr %j, align 8
  %add.ptr = getelementptr inbounds i8, ptr %10, i64 %11
  %add.ptr7 = getelementptr inbounds i8, ptr %add.ptr, i64 1
  call void @llvm.memcpy.p0.p0.i64(ptr align 4 %tmp, ptr align 1 %add.ptr7, i64 4, i1 false)
  %12 = load i32, ptr %tmp, align 4
  %conv8 = zext i32 %12 to i64
  %13 = load i64, ptr %target, align 8
  %add9 = add i64 %13, %conv8
  store i64 %add9, ptr %target, align 8
  %14 = load i64, ptr %target, align 8
  %15 = inttoptr i64 %14 to ptr
  %call = call i32 @dladdr(ptr noundef %15, ptr noundef %info) #14
  %cmp10 = icmp ne i32 %call, 0
  br i1 %cmp10, label %land.lhs.true, label %if.end25

land.lhs.true:                                    ; preds = %if.end5
  %dli_sname = getelementptr inbounds %struct.Dl_info, ptr %info, i32 0, i32 2
  %16 = load ptr, ptr %dli_sname, align 8
  %cmp12 = icmp ne ptr %16, null
  br i1 %cmp12, label %if.then14, label %if.end25

if.then14:                                        ; preds = %land.lhs.true
  %17 = load i64, ptr %target, align 8
  %and = and i64 %17, 255
  %arrayidx15 = getelementptr inbounds [256 x i64], ptr %ht, i64 0, i64 %and
  %18 = load i64, ptr %arrayidx15, align 8
  %19 = load i64, ptr %target, align 8
  %cmp16 = icmp ne i64 %18, %19
  br i1 %cmp16, label %if.then18, label %if.end23

if.then18:                                        ; preds = %if.then14
  %20 = load i64, ptr %target, align 8
  %dli_sname19 = getelementptr inbounds %struct.Dl_info, ptr %info, i32 0, i32 2
  %21 = load ptr, ptr %dli_sname19, align 8
  %call20 = call i32 (ptr, ...) @printf(ptr noundef @.str.284, i64 noundef %20, ptr noundef %21)
  %22 = load i64, ptr %target, align 8
  %23 = load i64, ptr %target, align 8
  %and21 = and i64 %23, 255
  %arrayidx22 = getelementptr inbounds [256 x i64], ptr %ht, i64 0, i64 %and21
  store i64 %22, ptr %arrayidx22, align 8
  br label %if.end23

if.end23:                                         ; preds = %if.then18, %if.then14
  %24 = load i64, ptr %j, align 8
  %add24 = add i64 %24, 4
  store i64 %add24, ptr %j, align 8
  br label %if.end25

if.end25:                                         ; preds = %if.end23, %land.lhs.true, %if.end5
  br label %for.inc

for.inc:                                          ; preds = %if.end25, %if.then4
  %25 = load i64, ptr %j, align 8
  %inc = add i64 %25, 1
  store i64 %inc, ptr %j, align 8
  br label %for.cond, !llvm.loop !34

for.end:                                          ; preds = %for.cond, %if.then
  ret void
}

; Function Attrs: nounwind uwtable
define dso_local void @serverLogHexDump(i32 noundef %level, ptr noundef %descr, ptr noundef %value, i64 noundef %len) #0 {
entry:
  %level.addr = alloca i32, align 4
  %descr.addr = alloca ptr, align 8
  %value.addr = alloca ptr, align 8
  %len.addr = alloca i64, align 8
  %buf = alloca [65 x i8], align 16
  %b = alloca ptr, align 8
  %v = alloca ptr, align 8
  %charset = alloca [17 x i8], align 16
  store i32 %level, ptr %level.addr, align 4
  store ptr %descr, ptr %descr.addr, align 8
  store ptr %value, ptr %value.addr, align 8
  store i64 %len, ptr %len.addr, align 8
  %0 = load ptr, ptr %value.addr, align 8
  store ptr %0, ptr %v, align 8
  call void @llvm.memcpy.p0.p0.i64(ptr align 16 %charset, ptr align 16 @__const.serverLogHexDump.charset, i64 17, i1 false)
  br label %do.body

do.body:                                          ; preds = %entry
  %1 = load i32, ptr %level.addr, align 4
  %and = and i32 %1, 255
  %2 = load i32, ptr getelementptr inbounds (%struct.redisServer, ptr @server, i32 0, i32 156), align 8
  %cmp = icmp slt i32 %and, %2
  br i1 %cmp, label %if.then, label %if.end

if.then:                                          ; preds = %do.body
  br label %do.end

if.end:                                           ; preds = %do.body
  %3 = load i32, ptr %level.addr, align 4
  %4 = load ptr, ptr %descr.addr, align 8
  %5 = load i64, ptr %len.addr, align 8
  call void (i32, ptr, ...) @_serverLog(i32 noundef %3, ptr noundef @.str.290, ptr noundef %4, i64 noundef %5)
  br label %do.end

do.end:                                           ; preds = %if.end, %if.then
  %arraydecay = getelementptr inbounds [65 x i8], ptr %buf, i64 0, i64 0
  store ptr %arraydecay, ptr %b, align 8
  br label %while.cond

while.cond:                                       ; preds = %if.end16, %do.end
  %6 = load i64, ptr %len.addr, align 8
  %tobool = icmp ne i64 %6, 0
  br i1 %tobool, label %while.body, label %while.end

while.body:                                       ; preds = %while.cond
  %7 = load ptr, ptr %v, align 8
  %8 = load i8, ptr %7, align 1
  %conv = zext i8 %8 to i32
  %shr = ashr i32 %conv, 4
  %idxprom = sext i32 %shr to i64
  %arrayidx = getelementptr inbounds [17 x i8], ptr %charset, i64 0, i64 %idxprom
  %9 = load i8, ptr %arrayidx, align 1
  %10 = load ptr, ptr %b, align 8
  %arrayidx1 = getelementptr inbounds i8, ptr %10, i64 0
  store i8 %9, ptr %arrayidx1, align 1
  %11 = load ptr, ptr %v, align 8
  %12 = load i8, ptr %11, align 1
  %conv2 = zext i8 %12 to i32
  %and3 = and i32 %conv2, 15
  %idxprom4 = sext i32 %and3 to i64
  %arrayidx5 = getelementptr inbounds [17 x i8], ptr %charset, i64 0, i64 %idxprom4
  %13 = load i8, ptr %arrayidx5, align 1
  %14 = load ptr, ptr %b, align 8
  %arrayidx6 = getelementptr inbounds i8, ptr %14, i64 1
  store i8 %13, ptr %arrayidx6, align 1
  %15 = load ptr, ptr %b, align 8
  %arrayidx7 = getelementptr inbounds i8, ptr %15, i64 2
  store i8 0, ptr %arrayidx7, align 1
  %16 = load ptr, ptr %b, align 8
  %add.ptr = getelementptr inbounds i8, ptr %16, i64 2
  store ptr %add.ptr, ptr %b, align 8
  %17 = load i64, ptr %len.addr, align 8
  %dec = add i64 %17, -1
  store i64 %dec, ptr %len.addr, align 8
  %18 = load ptr, ptr %v, align 8
  %incdec.ptr = getelementptr inbounds i8, ptr %18, i32 1
  store ptr %incdec.ptr, ptr %v, align 8
  %19 = load ptr, ptr %b, align 8
  %arraydecay8 = getelementptr inbounds [65 x i8], ptr %buf, i64 0, i64 0
  %sub.ptr.lhs.cast = ptrtoint ptr %19 to i64
  %sub.ptr.rhs.cast = ptrtoint ptr %arraydecay8 to i64
  %sub.ptr.sub = sub i64 %sub.ptr.lhs.cast, %sub.ptr.rhs.cast
  %cmp9 = icmp eq i64 %sub.ptr.sub, 64
  br i1 %cmp9, label %if.then13, label %lor.lhs.false

lor.lhs.false:                                    ; preds = %while.body
  %20 = load i64, ptr %len.addr, align 8
  %cmp11 = icmp eq i64 %20, 0
  br i1 %cmp11, label %if.then13, label %if.end16

if.then13:                                        ; preds = %lor.lhs.false, %while.body
  %21 = load i32, ptr %level.addr, align 4
  %or = or i32 %21, 1024
  %arraydecay14 = getelementptr inbounds [65 x i8], ptr %buf, i64 0, i64 0
  call void @serverLogRaw(i32 noundef %or, ptr noundef %arraydecay14)
  %arraydecay15 = getelementptr inbounds [65 x i8], ptr %buf, i64 0, i64 0
  store ptr %arraydecay15, ptr %b, align 8
  br label %if.end16

if.end16:                                         ; preds = %if.then13, %lor.lhs.false
  br label %while.cond, !llvm.loop !35

while.end:                                        ; preds = %while.cond
  %22 = load i32, ptr %level.addr, align 4
  %or17 = or i32 %22, 1024
  call void @serverLogRaw(i32 noundef %or17, ptr noundef @.str.280)
  ret void
}

; Function Attrs: nounwind uwtable
define dso_local void @dumpCodeAroundEIP(ptr noundef %eip) #0 {
entry:
  %eip.addr = alloca ptr, align 8
  %info = alloca %struct.Dl_info, align 8
  %len = alloca i64, align 8
  %sz = alloca i64, align 8
  %base = alloca ptr, align 8
  %next = alloca i64, align 8
  %end = alloca i64, align 8
  store ptr %eip, ptr %eip.addr, align 8
  %0 = load ptr, ptr %eip.addr, align 8
  %call = call i32 @dladdr(ptr noundef %0, ptr noundef %info) #14
  %cmp = icmp ne i32 %call, 0
  br i1 %cmp, label %if.then, label %if.end16

if.then:                                          ; preds = %entry
  br label %do.body

do.body:                                          ; preds = %if.then
  %1 = load i32, ptr getelementptr inbounds (%struct.redisServer, ptr @server, i32 0, i32 156), align 8
  %cmp1 = icmp slt i32 3, %1
  br i1 %cmp1, label %if.then2, label %if.end

if.then2:                                         ; preds = %do.body
  br label %do.end

if.end:                                           ; preds = %do.body
  %dli_sname = getelementptr inbounds %struct.Dl_info, ptr %info, i32 0, i32 2
  %2 = load ptr, ptr %dli_sname, align 8
  %dli_saddr = getelementptr inbounds %struct.Dl_info, ptr %info, i32 0, i32 3
  %3 = load ptr, ptr %dli_saddr, align 8
  %dli_fname = getelementptr inbounds %struct.Dl_info, ptr %info, i32 0, i32 0
  %4 = load ptr, ptr %dli_fname, align 8
  %dli_fbase = getelementptr inbounds %struct.Dl_info, ptr %info, i32 0, i32 1
  %5 = load ptr, ptr %dli_fbase, align 8
  %dli_saddr3 = getelementptr inbounds %struct.Dl_info, ptr %info, i32 0, i32 3
  %6 = load ptr, ptr %dli_saddr3, align 8
  call void (i32, ptr, ...) @_serverLog(i32 noundef 1027, ptr noundef @.str.285, ptr noundef %2, ptr noundef %3, ptr noundef %4, ptr noundef %5, ptr noundef %6)
  br label %do.end

do.end:                                           ; preds = %if.end, %if.then2
  %7 = load ptr, ptr %eip.addr, align 8
  %8 = ptrtoint ptr %7 to i64
  %dli_saddr4 = getelementptr inbounds %struct.Dl_info, ptr %info, i32 0, i32 3
  %9 = load ptr, ptr %dli_saddr4, align 8
  %10 = ptrtoint ptr %9 to i64
  %sub = sub nsw i64 %8, %10
  store i64 %sub, ptr %len, align 8
  %call5 = call i64 @sysconf(i32 noundef 30) #14
  store i64 %call5, ptr %sz, align 8
  %11 = load i64, ptr %len, align 8
  %cmp6 = icmp ult i64 %11, 8192
  br i1 %cmp6, label %if.then7, label %if.end15

if.then7:                                         ; preds = %do.end
  %dli_saddr8 = getelementptr inbounds %struct.Dl_info, ptr %info, i32 0, i32 3
  %12 = load ptr, ptr %dli_saddr8, align 8
  store ptr %12, ptr %base, align 8
  %13 = load ptr, ptr %eip.addr, align 8
  %14 = ptrtoint ptr %13 to i64
  %15 = load i64, ptr %sz, align 8
  %add = add i64 %14, %15
  %16 = load i64, ptr %sz, align 8
  %sub9 = sub i64 %16, 1
  %not = xor i64 %sub9, -1
  %and = and i64 %add, %not
  store i64 %and, ptr %next, align 8
  %17 = load ptr, ptr %eip.addr, align 8
  %18 = ptrtoint ptr %17 to i64
  %add10 = add i64 %18, 128
  store i64 %add10, ptr %end, align 8
  %19 = load i64, ptr %end, align 8
  %20 = load i64, ptr %next, align 8
  %cmp11 = icmp ugt i64 %19, %20
  br i1 %cmp11, label %if.then12, label %if.end13

if.then12:                                        ; preds = %if.then7
  %21 = load i64, ptr %next, align 8
  store i64 %21, ptr %end, align 8
  br label %if.end13

if.end13:                                         ; preds = %if.then12, %if.then7
  %22 = load i64, ptr %end, align 8
  %23 = load ptr, ptr %base, align 8
  %24 = ptrtoint ptr %23 to i64
  %sub14 = sub i64 %22, %24
  store i64 %sub14, ptr %len, align 8
  %25 = load ptr, ptr %base, align 8
  %26 = load i64, ptr %len, align 8
  call void @serverLogHexDump(i32 noundef 3, ptr noundef @.str.286, ptr noundef %25, i64 noundef %26)
  %27 = load ptr, ptr %base, align 8
  %28 = load i64, ptr %len, align 8
  call void @dumpX86Calls(ptr noundef %27, i64 noundef %28)
  br label %if.end15

if.end15:                                         ; preds = %if.end13, %do.end
  br label %if.end16

if.end16:                                         ; preds = %if.end15, %entry
  ret void
}