; Function Attrs: nounwind uwtable
define dso_local void @dumpCodeAroundEIP(ptr noundef %eip) local_unnamed_addr #0 {
entry:
  %info.i = alloca %struct.Dl_info, align 8
  %ht.i = alloca [256 x i64], align 16
  %buf.i = alloca [65 x i8], align 16
  %info = alloca %struct.Dl_info, align 8
  %call = call i32 @dladdr(ptr noundef %eip, ptr noundef nonnull %info) #22
  %cmp.not = icmp eq i32 %call, 0
  br i1 %cmp.not, label %if.end16, label %do.body

do.body:                                          ; preds = %entry
  %0 = load i32, ptr getelementptr inbounds (%struct.redisServer, ptr @server, i64 0, i32 156), align 8
  %cmp1 = icmp sgt i32 %0, 3
  br i1 %cmp1, label %do.end, label %if.end

if.end:                                           ; preds = %do.body
  %dli_sname = getelementptr inbounds i8, ptr %info, i64 16
  %1 = load ptr, ptr %dli_sname, align 8
  %dli_saddr = getelementptr inbounds i8, ptr %info, i64 24
  %2 = load ptr, ptr %dli_saddr, align 8
  %3 = load ptr, ptr %info, align 8
  %dli_fbase = getelementptr inbounds i8, ptr %info, i64 8
  %4 = load ptr, ptr %dli_fbase, align 8
  call void (i32, ptr, ...) @_serverLog(i32 noundef 1027, ptr noundef nonnull @.str.285, ptr noundef %1, ptr noundef %2, ptr noundef %3, ptr noundef %4, ptr noundef %2) #22
  br label %do.end

do.end:                                           ; preds = %do.body, %if.end
  %5 = ptrtoint ptr %eip to i64
  %dli_saddr4 = getelementptr inbounds i8, ptr %info, i64 24
  %6 = load ptr, ptr %dli_saddr4, align 8
  %7 = ptrtoint ptr %6 to i64
  %sub = sub nsw i64 %5, %7
  %call5 = call i64 @sysconf(i32 noundef 30) #22
  %cmp6 = icmp ult i64 %sub, 8192
  br i1 %cmp6, label %if.then7, label %if.end16

if.then7:                                         ; preds = %do.end
  %8 = load ptr, ptr %dli_saddr4, align 8
  %add = add i64 %call5, %5
  %not = sub i64 0, %call5
  %and = and i64 %add, %not
  %add10 = add i64 %5, 128
  %spec.select = call i64 @llvm.umin.i64(i64 %add10, i64 %and)
  %9 = ptrtoint ptr %8 to i64
  %sub14 = sub i64 %spec.select, %9
  call void @llvm.lifetime.start.p0(i64 65, ptr nonnull %buf.i)
  %10 = load i32, ptr getelementptr inbounds (%struct.redisServer, ptr @server, i64 0, i32 156), align 8
  %cmp.i = icmp sgt i32 %10, 3
  br i1 %cmp.i, label %do.end.i, label %if.end.i

if.end.i:                                         ; preds = %if.then7
  call void (i32, ptr, ...) @_serverLog(i32 noundef 3, ptr noundef nonnull @.str.290, ptr noundef nonnull @.str.286, i64 noundef %sub14) #22
  br label %do.end.i

do.end.i:                                         ; preds = %if.end.i, %if.then7
  %tobool.not13.i = icmp eq i64 %sub14, 0
  br i1 %tobool.not13.i, label %serverLogHexDump.exit, label %while.body.lr.ph.i

while.body.lr.ph.i:                               ; preds = %do.end.i
  %sub.ptr.rhs.cast.i = ptrtoint ptr %buf.i to i64
  br label %while.body.i

while.body.i:                                     ; preds = %if.end16.i, %while.body.lr.ph.i
  %v.016.i = phi ptr [ %8, %while.body.lr.ph.i ], [ %incdec.ptr.i, %if.end16.i ]
  %b.015.i = phi ptr [ %buf.i, %while.body.lr.ph.i ], [ %b.1.i, %if.end16.i ]
  %len.addr.014.i = phi i64 [ %sub14, %while.body.lr.ph.i ], [ %dec.i, %if.end16.i ]
  %11 = load i8, ptr %v.016.i, align 1
  %12 = lshr i8 %11, 4
  %idxprom.i = zext nneg i8 %12 to i64
  %arrayidx.i = getelementptr inbounds [17 x i8], ptr @__const.serverLogHexDump.charset, i64 0, i64 %idxprom.i
  %13 = load i8, ptr %arrayidx.i, align 1
  store i8 %13, ptr %b.015.i, align 1
  %14 = load i8, ptr %v.016.i, align 1
  %15 = and i8 %14, 15
  %idxprom4.i = zext nneg i8 %15 to i64
  %arrayidx5.i = getelementptr inbounds [17 x i8], ptr @__const.serverLogHexDump.charset, i64 0, i64 %idxprom4.i
  %16 = load i8, ptr %arrayidx5.i, align 1
  %arrayidx6.i = getelementptr inbounds i8, ptr %b.015.i, i64 1
  store i8 %16, ptr %arrayidx6.i, align 1
  %arrayidx7.i = getelementptr inbounds i8, ptr %b.015.i, i64 2
  store i8 0, ptr %arrayidx7.i, align 1
  %dec.i = add i64 %len.addr.014.i, -1
  %incdec.ptr.i = getelementptr inbounds i8, ptr %v.016.i, i64 1
  %sub.ptr.lhs.cast.i = ptrtoint ptr %arrayidx7.i to i64
  %sub.ptr.sub.i = sub i64 %sub.ptr.lhs.cast.i, %sub.ptr.rhs.cast.i
  %cmp9.i = icmp eq i64 %sub.ptr.sub.i, 64
  %cmp11.i = icmp eq i64 %dec.i, 0
  %or.cond.i = or i1 %cmp11.i, %cmp9.i
  br i1 %or.cond.i, label %if.then13.i, label %if.end16.i

if.then13.i:                                      ; preds = %while.body.i
  call void @serverLogRaw(i32 noundef 1027, ptr noundef nonnull %buf.i) #22
  br label %if.end16.i

if.end16.i:                                       ; preds = %if.then13.i, %while.body.i
  %b.1.i = phi ptr [ %buf.i, %if.then13.i ], [ %arrayidx7.i, %while.body.i ]
  br i1 %cmp11.i, label %serverLogHexDump.exit, label %while.body.i, !llvm.loop !39

serverLogHexDump.exit:                            ; preds = %if.end16.i, %do.end.i
  call void @serverLogRaw(i32 noundef 1027, ptr noundef nonnull @.str.280) #22
  call void @llvm.lifetime.end.p0(i64 65, ptr nonnull %buf.i)
  call void @llvm.lifetime.start.p0(i64 32, ptr nonnull %info.i)
  call void @llvm.lifetime.start.p0(i64 2048, ptr nonnull %ht.i)
  call void @llvm.memset.p0.i64(ptr noundef nonnull align 16 dereferenceable(2048) %ht.i, i8 0, i64 2048, i1 false)
  %cmp.i11 = icmp ult i64 %sub14, 5
  br i1 %cmp.i11, label %dumpX86Calls.exit, label %for.body.lr.ph.i

for.body.lr.ph.i:                                 ; preds = %serverLogHexDump.exit
  %sub.i = add i64 %sub14, -4
  %add.i = add i64 %9, 5
  %dli_sname.i = getelementptr inbounds i8, ptr %info.i, i64 16
  br label %for.body.i

for.body.i:                                       ; preds = %for.inc.i, %for.body.lr.ph.i
  %j.016.i = phi i64 [ 0, %for.body.lr.ph.i ], [ %inc.i, %for.inc.i ]
  %arrayidx.i12 = getelementptr inbounds i8, ptr %8, i64 %j.016.i
  %17 = load i8, ptr %arrayidx.i12, align 1
  %cmp2.not.i = icmp eq i8 %17, -24
  br i1 %cmp2.not.i, label %if.end5.i, label %for.inc.i

if.end5.i:                                        ; preds = %for.body.i
  %add.ptr7.i = getelementptr inbounds i8, ptr %arrayidx.i12, i64 1
  %tmp.0.copyload.i = load i32, ptr %add.ptr7.i, align 1
  %conv8.i = zext i32 %tmp.0.copyload.i to i64
  %add6.i = add i64 %add.i, %j.016.i
  %add9.i = add i64 %add6.i, %conv8.i
  %18 = inttoptr i64 %add9.i to ptr
  %call.i = call i32 @dladdr(ptr noundef %18, ptr noundef nonnull %info.i) #22
  %cmp10.i = icmp ne i32 %call.i, 0
  %19 = load ptr, ptr %dli_sname.i, align 8
  %cmp12.i = icmp ne ptr %19, null
  %or.cond.i13 = select i1 %cmp10.i, i1 %cmp12.i, i1 false
  br i1 %or.cond.i13, label %if.then14.i, label %for.inc.i

if.then14.i:                                      ; preds = %if.end5.i
  %and.i = and i64 %add9.i, 255
  %arrayidx15.i = getelementptr inbounds [256 x i64], ptr %ht.i, i64 0, i64 %and.i
  %20 = load i64, ptr %arrayidx15.i, align 8
  %cmp16.not.i = icmp eq i64 %20, %add9.i
  br i1 %cmp16.not.i, label %if.end23.i, label %if.then18.i

if.then18.i:                                      ; preds = %if.then14.i
  %call20.i = call i32 (ptr, ...) @printf(ptr noundef nonnull dereferenceable(1) @.str.284, i64 noundef %add9.i, ptr noundef nonnull %19)
  store i64 %add9.i, ptr %arrayidx15.i, align 8
  br label %if.end23.i

if.end23.i:                                       ; preds = %if.then18.i, %if.then14.i
  %add24.i = add nuw i64 %j.016.i, 4
  br label %for.inc.i

for.inc.i:                                        ; preds = %if.end23.i, %if.end5.i, %for.body.i
  %j.1.i = phi i64 [ %j.016.i, %for.body.i ], [ %add24.i, %if.end23.i ], [ %j.016.i, %if.end5.i ]
  %inc.i = add i64 %j.1.i, 1
  %cmp1.i = icmp ult i64 %inc.i, %sub.i
  br i1 %cmp1.i, label %for.body.i, label %dumpX86Calls.exit, !llvm.loop !38

dumpX86Calls.exit:                                ; preds = %for.inc.i, %serverLogHexDump.exit
  call void @llvm.lifetime.end.p0(i64 32, ptr nonnull %info.i)
  call void @llvm.lifetime.end.p0(i64 2048, ptr nonnull %ht.i)
  br label %if.end16

if.end16:                                         ; preds = %do.end, %dumpX86Calls.exit, %entry
  ret void
}